; Function Attrs: mustprogress nofree norecurse nosync nounwind willreturn memory(read, inaccessiblemem: none) uwtable
define dso_local noundef zeroext i1 @_ZNK4node4quic7Session20wants_session_ticketEv(ptr nocapture noundef nonnull readonly align 8 dereferenceable(2616) %this) local_unnamed_addr #11 align 2 {
entry:
  %ptr_.i = getelementptr inbounds i8, ptr %this, i64 128
  %0 = load ptr, ptr %ptr_.i, align 8
  %session_ticket = getelementptr inbounds i8, ptr %0, i64 3
  %1 = load i8, ptr %session_ticket, align 1
  %cmp = icmp eq i8 %1, 1
  ret i1 %cmp
}